; ModuleID = '38/890.c'
source_filename = "38/890.c"
target datalayout = "e-m:e-p270:32:32-p271:32:32-p272:64:64-i64:64-f80:128-n8:16:32:64-S128"
target triple = "x86_64-pc-linux-gnu"

@.str = private unnamed_addr constant [3 x i8] c"%d\00", align 1
@.str.1 = private unnamed_addr constant [4 x i8] c"%lf\00", align 1
@.str.2 = private unnamed_addr constant [7 x i8] c"%.5lf\0A\00", align 1

; Function Attrs: noinline nounwind uwtable
define dso_local i32 @main() #0 {
  %1 = alloca i32, align 4
  %2 = alloca i32, align 4
  %3 = alloca i32, align 4
  %4 = alloca i32, align 4
  %5 = alloca [100 x double], align 16
  %6 = alloca double, align 8
  %7 = alloca double, align 8
  %8 = alloca double, align 8
  %9 = alloca double, align 8
  %10 = alloca double, align 8
  %11 = alloca double, align 8
  %12 = alloca double, align 8
  store i32 0, i32* %1, align 4
  %13 = bitcast [100 x double]* %5 to i8*
  call void @llvm.memset.p0i8.i64(i8* align 16 %13, i8 0, i64 800, i1 false)
  store double 0.000000e+00, double* %6, align 8
  store double 0.000000e+00, double* %7, align 8
  %14 = call i32 (i8*, ...) @__isoc99_scanf(i8* getelementptr inbounds ([3 x i8], [3 x i8]* @.str, i64 0, i64 0), i32* %2)
  store i32 0, i32* %4, align 4
  br label %15

15:                                               ; preds = %77, %0
  %16 = load i32, i32* %4, align 4
  %17 = load i32, i32* %2, align 4
  %18 = icmp slt i32 %16, %17
  br i1 %18, label %19, label %80

19:                                               ; preds = %15
  store double 0.000000e+00, double* %9, align 8
  store double 0.000000e+00, double* %10, align 8
  store double 0.000000e+00, double* %11, align 8
  store double 0.000000e+00, double* %12, align 8
  %20 = call i32 (i8*, ...) @__isoc99_scanf(i8* getelementptr inbounds ([4 x i8], [4 x i8]* @.str.1, i64 0, i64 0), double* %8)
  store i32 0, i32* %3, align 4
  br label %21

21:                                               ; preds = %40, %19
  %22 = load i32, i32* %3, align 4
  %23 = sitofp i32 %22 to double
  %24 = load double, double* %8, align 8
  %25 = fcmp olt double %23, %24
  br i1 %25, label %26, label %43

26:                                               ; preds = %21
  %27 = load i32, i32* %3, align 4
  %28 = sext i32 %27 to i64
  %29 = getelementptr inbounds [100 x double], [100 x double]* %5, i64 0, i64 %28
  %30 = call i32 (i8*, ...) @__isoc99_scanf(i8* getelementptr inbounds ([4 x i8], [4 x i8]* @.str.1, i64 0, i64 0), double* %29)
  %31 = load i32, i32* %3, align 4
  %32 = sext i32 %31 to i64
  %33 = getelementptr inbounds [100 x double], [100 x double]* %5, i64 0, i64 %32
  %34 = load double, double* %33, align 8
  %35 = load double, double* %9, align 8
  %36 = fadd double %35, %34
  store double %36, double* %9, align 8
  %37 = load double, double* %9, align 8
  %38 = load double, double* %8, align 8
  %39 = fdiv double %37, %38
  store double %39, double* %10, align 8
  br label %40

40:                                               ; preds = %26
  %41 = load i32, i32* %3, align 4
  %42 = add nsw i32 %41, 1
  store i32 %42, i32* %3, align 4
  br label %21

43:                                               ; preds = %21
  store i32 0, i32* %3, align 4
  br label %44

44:                                               ; preds = %66, %43
  %45 = load i32, i32* %3, align 4
  %46 = sitofp i32 %45 to double
  %47 = load double, double* %8, align 8
  %48 = fcmp olt double %46, %47
  br i1 %48, label %49, label %69

49:                                               ; preds = %44
  %50 = load i32, i32* %3, align 4
  %51 = sext i32 %50 to i64
  %52 = getelementptr inbounds [100 x double], [100 x double]* %5, i64 0, i64 %51
  %53 = load double, double* %52, align 8
  %54 = load double, double* %10, align 8
  %55 = fsub double %53, %54
  %56 = load i32, i32* %3, align 4
  %57 = sext i32 %56 to i64
  %58 = getelementptr inbounds [100 x double], [100 x double]* %5, i64 0, i64 %57
  %59 = load double, double* %58, align 8
  %60 = load double, double* %10, align 8
  %61 = fsub double %59, %60
  %62 = fmul double %55, %61
  store double %62, double* %12, align 8
  %63 = load double, double* %12, align 8
  %64 = load double, double* %11, align 8
  %65 = fadd double %64, %63
  store double %65, double* %11, align 8
  br label %66

66:                                               ; preds = %49
  %67 = load i32, i32* %3, align 4
  %68 = add nsw i32 %67, 1
  store i32 %68, i32* %3, align 4
  br label %44

69:                                               ; preds = %44
  %70 = load double, double* %11, align 8
  %71 = load double, double* %8, align 8
  %72 = fdiv double %70, %71
  store double %72, double* %6, align 8
  %73 = load double, double* %6, align 8
  %74 = call double @sqrt(double %73) #4
  store double %74, double* %7, align 8
  %75 = load double, double* %7, align 8
  %76 = call i32 (i8*, ...) @printf(i8* getelementptr inbounds ([7 x i8], [7 x i8]* @.str.2, i64 0, i64 0), double %75)
  br label %77

77:                                               ; preds = %69
  %78 = load i32, i32* %4, align 4
  %79 = add nsw i32 %78, 1
  store i32 %79, i32* %4, align 4
  br label %15

80:                                               ; preds = %15
  ret i32 0
}

; Function Attrs: argmemonly nounwind willreturn
declare void @llvm.memset.p0i8.i64(i8* nocapture writeonly, i8, i64, i1 immarg) #1

declare dso_local i32 @__isoc99_scanf(i8*, ...) #2

; Function Attrs: nounwind
declare dso_local double @sqrt(double) #3

declare dso_local i32 @printf(i8*, ...) #2


!llvm.module.flags = !{!0}
!llvm.ident = !{!1}

!0 = !{i32 1, !"wchar_size", i32 4}
!1 = !{!"clang version 10.0.0-4ubuntu1 "}
